target datalayout = "e-m:e-p270:32:32-p271:32:32-p272:64:64-i64:64-i128:128-f80:128-n8:16:32:64-S128"
target triple = "x86_64-pc-linux-gnu"

%"struct.std::_Rb_tree_header" = type { %"struct.std::_Rb_tree_node_base", i64 }
%"struct.std::_Rb_tree_node_base" = type { i32, ptr, ptr, ptr }
%"class.gmx::CpuInfo" = type { i32, i32, %"class.std::__cxx11::basic_string", i32, i32, i32, %"class.std::set", %"class.std::vector" }
%"class.std::__cxx11::basic_string" = type { %"struct.std::__cxx11::basic_string<char>::_Alloc_hider", i64, %union.anon }
%"struct.std::__cxx11::basic_string<char>::_Alloc_hider" = type { ptr }
%union.anon = type { i64, [8 x i8] }
%"class.std::set" = type { %"class.std::_Rb_tree" }
%"class.std::_Rb_tree" = type { %"struct.std::_Rb_tree<gmx::CpuInfo::Feature, gmx::CpuInfo::Feature, std::_Identity<gmx::CpuInfo::Feature>, std::less<gmx::CpuInfo::Feature>>::_Rb_tree_impl" }
%"struct.std::_Rb_tree<gmx::CpuInfo::Feature, gmx::CpuInfo::Feature, std::_Identity<gmx::CpuInfo::Feature>, std::less<gmx::CpuInfo::Feature>>::_Rb_tree_impl" = type { [8 x i8], %"struct.std::_Rb_tree_header" }
%"class.std::vector" = type { %"struct.std::_Vector_base" }
%"struct.std::_Vector_base" = type { %"struct.std::_Vector_base<gmx::CpuInfo::LogicalProcessor, std::allocator<gmx::CpuInfo::LogicalProcessor>>::_Vector_impl" }
%"struct.std::_Vector_base<gmx::CpuInfo::LogicalProcessor, std::allocator<gmx::CpuInfo::LogicalProcessor>>::_Vector_impl" = type { %"struct.std::_Vector_base<gmx::CpuInfo::LogicalProcessor, std::allocator<gmx::CpuInfo::LogicalProcessor>>::_Vector_impl_data" }
%"struct.std::_Vector_base<gmx::CpuInfo::LogicalProcessor, std::allocator<gmx::CpuInfo::LogicalProcessor>>::_Vector_impl_data" = type { ptr, ptr, ptr }

; Function Attrs: mustprogress nounwind uwtable
define linkonce_odr noundef i32 @_ZNK3gmx7CpuInfo5modelEv(ptr noundef nonnull align 8 dereferenceable(128) %0) #2 comdat align 2 {
  %2 = alloca ptr, align 8
  store ptr %0, ptr %2, align 8, !tbaa !69
  %3 = load ptr, ptr %2, align 8
  %4 = getelementptr inbounds nuw %"class.gmx::CpuInfo", ptr %3, i32 0, i32 4
  %5 = load i32, ptr %4, align 4, !tbaa !217
  ret i32 %5
}

; Function Attrs: mustprogress nounwind uwtable
define linkonce_odr noundef i32 @_ZNK3gmx7CpuInfo6familyEv(ptr noundef nonnull align 8 dereferenceable(128) %0) #2 comdat align 2 {
  %2 = alloca ptr, align 8
  store ptr %0, ptr %2, align 8, !tbaa !69
  %3 = load ptr, ptr %2, align 8
  %4 = getelementptr inbounds nuw %"class.gmx::CpuInfo", ptr %3, i32 0, i32 3
  %5 = load i32, ptr %4, align 8, !tbaa !216
  ret i32 %5
}

; Function Attrs: mustprogress nounwind uwtable
define linkonce_odr noundef i32 @_ZNK3gmx7CpuInfo6vendorEv(ptr noundef nonnull align 8 dereferenceable(128) %0) #2 comdat align 2 {
  %2 = alloca ptr, align 8
  store ptr %0, ptr %2, align 8, !tbaa !69
  %3 = load ptr, ptr %2, align 8
  %4 = getelementptr inbounds nuw %"class.gmx::CpuInfo", ptr %3, i32 0, i32 1
  %5 = load i32, ptr %4, align 4, !tbaa !4
  ret i32 %5
}

; Function Attrs: mustprogress nounwind uwtable
define noundef zeroext i1 @_ZN3gmx12cpuIsAmdZen1ERKNS_7CpuInfoE(ptr noundef nonnull align 8 dereferenceable(128) %0) #2 {
  %2 = alloca ptr, align 8
  store ptr %0, ptr %2, align 8, !tbaa !69
  %3 = load ptr, ptr %2, align 8, !tbaa !69
  %4 = call noundef i32 @_ZNK3gmx7CpuInfo6vendorEv(ptr noundef nonnull align 8 dereferenceable(128) %3)
  %5 = icmp eq i32 %4, 2
  br i1 %5, label %6, label %26

6:                                                ; preds = %1
  %7 = load ptr, ptr %2, align 8, !tbaa !69
  %8 = call noundef i32 @_ZNK3gmx7CpuInfo6familyEv(ptr noundef nonnull align 8 dereferenceable(128) %7)
  %9 = icmp eq i32 %8, 23
  br i1 %9, label %10, label %26

10:                                               ; preds = %6
  %11 = load ptr, ptr %2, align 8, !tbaa !69
  %12 = call noundef i32 @_ZNK3gmx7CpuInfo5modelEv(ptr noundef nonnull align 8 dereferenceable(128) %11)
  %13 = icmp eq i32 %12, 1
  br i1 %13, label %30, label %14

14:                                               ; preds = %10
  %15 = load ptr, ptr %2, align 8, !tbaa !69
  %16 = call noundef i32 @_ZNK3gmx7CpuInfo5modelEv(ptr noundef nonnull align 8 dereferenceable(128) %15)
  %17 = icmp eq i32 %16, 17
  br i1 %17, label %30, label %18

18:                                               ; preds = %14
  %19 = load ptr, ptr %2, align 8, !tbaa !69
  %20 = call noundef i32 @_ZNK3gmx7CpuInfo5modelEv(ptr noundef nonnull align 8 dereferenceable(128) %19)
  %21 = icmp eq i32 %20, 8
  br i1 %21, label %30, label %22

22:                                               ; preds = %18
  %23 = load ptr, ptr %2, align 8, !tbaa !69
  %24 = call noundef i32 @_ZNK3gmx7CpuInfo5modelEv(ptr noundef nonnull align 8 dereferenceable(128) %23)
  %25 = icmp eq i32 %24, 24
  br i1 %25, label %30, label %26

26:                                               ; preds = %22, %6, %1
  %27 = load ptr, ptr %2, align 8, !tbaa !69
  %28 = call noundef i32 @_ZNK3gmx7CpuInfo6vendorEv(ptr noundef nonnull align 8 dereferenceable(128) %27)
  %29 = icmp eq i32 %28, 7
  br label %30

30:                                               ; preds = %26, %22, %18, %14, %10
  %31 = phi i1 [ true, %22 ], [ true, %18 ], [ true, %14 ], [ true, %10 ], [ %29, %26 ]
  ret i1 %31
}