; Function Attrs: mustprogress nofree norecurse nosync nounwind willreturn memory(argmem: read) uwtable
define noundef zeroext i1 @_ZN3gmx12cpuIsAmdZen1ERKNS_7CpuInfoE(ptr noundef nonnull readonly align 8 captures(none) dereferenceable(128) %0) local_unnamed_addr #16 {
  %2 = getelementptr inbounds nuw i8, ptr %0, i64 4
  %3 = load i32, ptr %2, align 4, !tbaa !5
  %4 = icmp eq i32 %3, 2
  %5 = getelementptr inbounds nuw i8, ptr %0, i64 40
  %6 = load i32, ptr %5, align 8
  %7 = icmp eq i32 %6, 23
  %or.cond = select i1 %4, i1 %7, i1 false
  br i1 %or.cond, label %8, label %12

8:                                                ; preds = %1
  %9 = getelementptr inbounds nuw i8, ptr %0, i64 44
  %10 = load i32, ptr %9, align 4, !tbaa !85
  %switch.tableidx = add i32 %10, -1
  %11 = icmp ult i32 %switch.tableidx, 24
  br i1 %11, label %switch.hole_check, label %12

12:                                               ; preds = %switch.hole_check, %8, %1
  %13 = icmp eq i32 %3, 7
  br label %switch.lookup

switch.hole_check:                                ; preds = %8
  %switch.shifted = lshr i32 8454273, %switch.tableidx
  %switch.lobit = trunc i32 %switch.shifted to i1
  br i1 %switch.lobit, label %switch.lookup, label %12

switch.lookup:                                    ; preds = %switch.hole_check, %12
  %14 = phi i1 [ %13, %12 ], [ true, %switch.hole_check ]
  ret i1 %14
}